; Function Attrs: mustprogress uwtable
define noundef ptr @uidna_openUTS46_77(i32 noundef %0, ptr noundef %1) local_unnamed_addr #1 personality ptr @__gxx_personality_v0 {
  %3 = load i32, ptr %1, align 4, !tbaa !13
  %4 = icmp sgt i32 %3, 0
  br i1 %4, label %_ZN6icu_774IDNA19createUTS46InstanceEjR10UErrorCode.exit, label %5

5:                                                ; preds = %2
  %6 = tail call noundef ptr @_ZN6icu_777UMemorynwEm(i64 noundef 24) #17
  %7 = icmp eq ptr %6, null
  br i1 %7, label %9, label %8

8:                                                ; preds = %5
  invoke void @_ZN6icu_775UTS46C1EjR10UErrorCode(ptr noundef nonnull align 8 dereferenceable(20) %6, i32 noundef %0, ptr noundef nonnull align 4 dereferenceable(4) %1)
          to label %12 unwind label %10

9:                                                ; preds = %5
  store i32 7, ptr %1, align 4, !tbaa !13
  br label %_ZN6icu_774IDNA19createUTS46InstanceEjR10UErrorCode.exit

10:                                               ; preds = %8
  %11 = landingpad { ptr, i32 }
          cleanup
  tail call void @_ZN6icu_777UMemorydlEPv(ptr noundef nonnull %6) #17
  resume { ptr, i32 } %11

12:                                               ; preds = %8
  %13 = load i32, ptr %1, align 4, !tbaa !13
  %14 = icmp slt i32 %13, 1
  br i1 %14, label %_ZN6icu_774IDNA19createUTS46InstanceEjR10UErrorCode.exit, label %15

15:                                               ; preds = %12
  %16 = load ptr, ptr %6, align 8, !tbaa !15
  %17 = getelementptr inbounds nuw i8, ptr %16, i64 8
  %18 = load ptr, ptr %17, align 8
  tail call void %18(ptr noundef nonnull align 8 dereferenceable(8) %6) #17
  br label %_ZN6icu_774IDNA19createUTS46InstanceEjR10UErrorCode.exit

_ZN6icu_774IDNA19createUTS46InstanceEjR10UErrorCode.exit: ; preds = %2, %9, %12, %15
  %.0.i = phi ptr [ null, %9 ], [ null, %15 ], [ %6, %12 ], [ null, %2 ]
  ret ptr %.0.i
}